target datalayout = "e-m:e-p270:32:32-p271:32:32-p272:64:64-i64:64-i128:128-f80:128-n8:16:32:64-S128"
target triple = "x86_64-pc-linux-gnu"

%struct.Amap_Man_t_ = type { ptr, ptr, float, float, i32, i32, ptr, ptr, ptr, ptr, ptr, ptr, ptr, ptr, [7 x i32], i32, i32, i32, ptr, ptr, ptr, ptr, ptr, ptr, ptr, ptr, i32, i32, i32, i32 }
%struct.Amap_Obj_t_ = type { i64, i32, i32, i32, i32, [3 x i32], %union.anon, float, [2 x i32], %struct.Amap_Mat_t_ }
%union.anon = type { ptr }
%struct.Amap_Mat_t_ = type { ptr, ptr, float, float, float }
%struct.Vec_Ptr_t_ = type { i32, i32, ptr }

; Function Attrs: inlinehint nounwind uwtable
define internal ptr @Vec_PtrEntry(ptr noundef %0, i32 noundef %1) #3 {
  %3 = alloca ptr, align 8
  %4 = alloca i32, align 4
  store ptr %0, ptr %3, align 8, !tbaa !35
  store i32 %1, ptr %4, align 4, !tbaa !8
  %5 = load ptr, ptr %3, align 8, !tbaa !35
  %6 = getelementptr inbounds nuw %struct.Vec_Ptr_t_, ptr %5, i32 0, i32 2
  %7 = load ptr, ptr %6, align 8, !tbaa !38
  %8 = load i32, ptr %4, align 4, !tbaa !8
  %9 = sext i32 %8 to i64
  %10 = getelementptr inbounds ptr, ptr %7, i64 %9
  %11 = load ptr, ptr %10, align 8, !tbaa !39
  ret ptr %11
}

; Function Attrs: inlinehint nounwind uwtable
define internal i32 @Abc_LitIsCompl(i32 noundef %0) #3 {
  %2 = alloca i32, align 4
  store i32 %0, ptr %2, align 4, !tbaa !8
  %3 = load i32, ptr %2, align 4, !tbaa !8
  %4 = and i32 %3, 1
  ret i32 %4
}

; Function Attrs: inlinehint nounwind uwtable
define internal ptr @Amap_ManObj(ptr noundef %0, i32 noundef %1) #3 {
  %3 = alloca ptr, align 8
  %4 = alloca i32, align 4
  store ptr %0, ptr %3, align 8, !tbaa !3
  store i32 %1, ptr %4, align 4, !tbaa !8
  %5 = load ptr, ptr %3, align 8, !tbaa !3
  %6 = getelementptr inbounds nuw %struct.Amap_Man_t_, ptr %5, i32 0, i32 8
  %7 = load ptr, ptr %6, align 8, !tbaa !109
  %8 = load i32, ptr %4, align 4, !tbaa !8
  %9 = call ptr @Vec_PtrEntry(ptr noundef %7, i32 noundef %8)
  ret ptr %9
}

; Function Attrs: inlinehint nounwind uwtable
define internal i32 @Abc_Lit2Var(i32 noundef %0) #3 {
  %2 = alloca i32, align 4
  store i32 %0, ptr %2, align 4, !tbaa !8
  %3 = load i32, ptr %2, align 4, !tbaa !8
  %4 = ashr i32 %3, 1
  ret i32 %4
}

; Function Attrs: inlinehint nounwind uwtable
define internal ptr @Amap_ManCutNext(ptr noundef %0) #3 {
  %2 = alloca ptr, align 8
  store ptr %0, ptr %2, align 8, !tbaa !26
  %3 = load ptr, ptr %2, align 8, !tbaa !26
  %4 = load ptr, ptr %2, align 8, !tbaa !26
  %5 = load i32, ptr %4, align 4
  %6 = lshr i32 %5, 17
  %7 = sext i32 %6 to i64
  %8 = getelementptr inbounds i32, ptr %3, i64 %7
  %9 = getelementptr inbounds i32, ptr %8, i64 1
  ret ptr %9
}

; Function Attrs: inlinehint nounwind uwtable
define internal i32 @Abc_Var2Lit(i32 noundef %0, i32 noundef %1) #3 {
  %3 = alloca i32, align 4
  %4 = alloca i32, align 4
  store i32 %0, ptr %3, align 4, !tbaa !8
  store i32 %1, ptr %4, align 4, !tbaa !8
  %5 = load i32, ptr %3, align 4, !tbaa !8
  %6 = load i32, ptr %3, align 4, !tbaa !8
  %7 = add nsw i32 %5, %6
  %8 = load i32, ptr %4, align 4, !tbaa !8
  %9 = add nsw i32 %7, %8
  ret i32 %9
}

; Function Attrs: inlinehint nounwind uwtable
define internal i32 @Amap_ObjFaninC1(ptr noundef %0) #3 {
  %2 = alloca ptr, align 8
  store ptr %0, ptr %2, align 8, !tbaa !25
  %3 = load ptr, ptr %2, align 8, !tbaa !25
  %4 = getelementptr inbounds nuw %struct.Amap_Obj_t_, ptr %3, i32 0, i32 5
  %5 = getelementptr inbounds [3 x i32], ptr %4, i64 0, i64 1
  %6 = load i32, ptr %5, align 4, !tbaa !8
  %7 = call i32 @Abc_LitIsCompl(i32 noundef %6)
  ret i32 %7
}

; Function Attrs: inlinehint nounwind uwtable
define internal i32 @Amap_ObjFaninC0(ptr noundef %0) #3 {
  %2 = alloca ptr, align 8
  store ptr %0, ptr %2, align 8, !tbaa !25
  %3 = load ptr, ptr %2, align 8, !tbaa !25
  %4 = getelementptr inbounds nuw %struct.Amap_Obj_t_, ptr %3, i32 0, i32 5
  %5 = getelementptr inbounds [3 x i32], ptr %4, i64 0, i64 0
  %6 = load i32, ptr %5, align 8, !tbaa !8
  %7 = call i32 @Abc_LitIsCompl(i32 noundef %6)
  ret i32 %7
}

; Function Attrs: inlinehint nounwind uwtable
define internal ptr @Amap_ObjFanin1(ptr noundef %0, ptr noundef %1) #3 {
  %3 = alloca ptr, align 8
  %4 = alloca ptr, align 8
  store ptr %0, ptr %3, align 8, !tbaa !3
  store ptr %1, ptr %4, align 8, !tbaa !25
  %5 = load ptr, ptr %3, align 8, !tbaa !3
  %6 = load ptr, ptr %4, align 8, !tbaa !25
  %7 = getelementptr inbounds nuw %struct.Amap_Obj_t_, ptr %6, i32 0, i32 5
  %8 = getelementptr inbounds [3 x i32], ptr %7, i64 0, i64 1
  %9 = load i32, ptr %8, align 4, !tbaa !8
  %10 = call i32 @Abc_Lit2Var(i32 noundef %9)
  %11 = call ptr @Amap_ManObj(ptr noundef %5, i32 noundef %10)
  ret ptr %11
}

; Function Attrs: inlinehint nounwind uwtable
define internal ptr @Amap_ObjFanin0(ptr noundef %0, ptr noundef %1) #3 {
  %3 = alloca ptr, align 8
  %4 = alloca ptr, align 8
  store ptr %0, ptr %3, align 8, !tbaa !3
  store ptr %1, ptr %4, align 8, !tbaa !25
  %5 = load ptr, ptr %3, align 8, !tbaa !3
  %6 = load ptr, ptr %4, align 8, !tbaa !25
  %7 = getelementptr inbounds nuw %struct.Amap_Obj_t_, ptr %6, i32 0, i32 5
  %8 = getelementptr inbounds [3 x i32], ptr %7, i64 0, i64 0
  %9 = load i32, ptr %8, align 8, !tbaa !8
  %10 = call i32 @Abc_Lit2Var(i32 noundef %9)
  %11 = call ptr @Amap_ManObj(ptr noundef %5, i32 noundef %10)
  ret ptr %11
}

; Function Attrs: nounwind uwtable
define i32 @Amap_ManMergeCountCuts(ptr noundef %0, ptr noundef %1) #0 {
  %3 = alloca ptr, align 8
  %4 = alloca ptr, align 8
  %5 = alloca ptr, align 8
  %6 = alloca ptr, align 8
  %7 = alloca ptr, align 8
  %8 = alloca ptr, align 8
  %9 = alloca i32, align 4
  %10 = alloca i32, align 4
  %11 = alloca i32, align 4
  %12 = alloca i32, align 4
  %13 = alloca i32, align 4
  %14 = alloca i32, align 4
  %15 = alloca i32, align 4
  %16 = alloca i32, align 4
  store ptr %0, ptr %3, align 8, !tbaa !3
  store ptr %1, ptr %4, align 8, !tbaa !25
  call void @llvm.lifetime.start.p0(i64 8, ptr %5) #10
  %17 = load ptr, ptr %3, align 8, !tbaa !3
  %18 = load ptr, ptr %4, align 8, !tbaa !25
  %19 = call ptr @Amap_ObjFanin0(ptr noundef %17, ptr noundef %18)
  store ptr %19, ptr %5, align 8, !tbaa !25
  call void @llvm.lifetime.start.p0(i64 8, ptr %6) #10
  %20 = load ptr, ptr %3, align 8, !tbaa !3
  %21 = load ptr, ptr %4, align 8, !tbaa !25
  %22 = call ptr @Amap_ObjFanin1(ptr noundef %20, ptr noundef %21)
  store ptr %22, ptr %6, align 8, !tbaa !25
  call void @llvm.lifetime.start.p0(i64 8, ptr %7) #10
  call void @llvm.lifetime.start.p0(i64 8, ptr %8) #10
  call void @llvm.lifetime.start.p0(i64 4, ptr %9) #10
  call void @llvm.lifetime.start.p0(i64 4, ptr %10) #10
  call void @llvm.lifetime.start.p0(i64 4, ptr %11) #10
  call void @llvm.lifetime.start.p0(i64 4, ptr %12) #10
  call void @llvm.lifetime.start.p0(i64 4, ptr %13) #10
  call void @llvm.lifetime.start.p0(i64 4, ptr %14) #10
  call void @llvm.lifetime.start.p0(i64 4, ptr %15) #10
  call void @llvm.lifetime.start.p0(i64 4, ptr %16) #10
  store i32 1, ptr %16, align 4, !tbaa !8
  store i32 0, ptr %10, align 4, !tbaa !8
  %23 = load ptr, ptr %5, align 8, !tbaa !25
  %24 = getelementptr inbounds nuw %struct.Amap_Obj_t_, ptr %23, i32 0, i32 6
  %25 = load ptr, ptr %24, align 8, !tbaa !27
  store ptr %25, ptr %7, align 8, !tbaa !26
  br label %26

26:                                               ; preds = %106, %2
  %27 = load i32, ptr %10, align 4, !tbaa !8
  %28 = load ptr, ptr %5, align 8, !tbaa !25
  %29 = getelementptr inbounds nuw %struct.Amap_Obj_t_, ptr %28, i32 0, i32 2
  %30 = load i32, ptr %29, align 4, !tbaa !28
  %31 = icmp slt i32 %27, %30
  br i1 %31, label %32, label %111

32:                                               ; preds = %26
  store i32 0, ptr %11, align 4, !tbaa !8
  %33 = load ptr, ptr %6, align 8, !tbaa !25
  %34 = getelementptr inbounds nuw %struct.Amap_Obj_t_, ptr %33, i32 0, i32 6
  %35 = load ptr, ptr %34, align 8, !tbaa !27
  store ptr %35, ptr %8, align 8, !tbaa !26
  br label %36

36:                                               ; preds = %100, %32
  %37 = load i32, ptr %11, align 4, !tbaa !8
  %38 = load ptr, ptr %6, align 8, !tbaa !25
  %39 = getelementptr inbounds nuw %struct.Amap_Obj_t_, ptr %38, i32 0, i32 2
  %40 = load i32, ptr %39, align 4, !tbaa !28
  %41 = icmp slt i32 %37, %40
  br i1 %41, label %42, label %105

42:                                               ; preds = %36
  %43 = load ptr, ptr %7, align 8, !tbaa !26
  %44 = load i32, ptr %43, align 4
  %45 = lshr i32 %44, 16
  %46 = and i32 %45, 1
  %47 = load ptr, ptr %4, align 8, !tbaa !25
  %48 = call i32 @Amap_ObjFaninC0(ptr noundef %47)
  %49 = xor i32 %46, %48
  store i32 %49, ptr %12, align 4, !tbaa !8
  %50 = load ptr, ptr %8, align 8, !tbaa !26
  %51 = load i32, ptr %50, align 4
  %52 = lshr i32 %51, 16
  %53 = and i32 %52, 1
  %54 = load ptr, ptr %4, align 8, !tbaa !25
  %55 = call i32 @Amap_ObjFaninC1(ptr noundef %54)
  %56 = xor i32 %53, %55
  store i32 %56, ptr %13, align 4, !tbaa !8
  %57 = load ptr, ptr %7, align 8, !tbaa !26
  %58 = load i32, ptr %57, align 4
  %59 = and i32 %58, 65535
  %60 = icmp ne i32 %59, 0
  br i1 %60, label %62, label %61

61:                                               ; preds = %42
  br label %68

62:                                               ; preds = %42
  %63 = load ptr, ptr %7, align 8, !tbaa !26
  %64 = load i32, ptr %63, align 4
  %65 = and i32 %64, 65535
  %66 = load i32, ptr %12, align 4, !tbaa !8
  %67 = call i32 @Abc_Var2Lit(i32 noundef %65, i32 noundef %66)
  br label %68

68:                                               ; preds = %62, %61
  %69 = phi i32 [ 0, %61 ], [ %67, %62 ]
  store i32 %69, ptr %14, align 4, !tbaa !8
  %70 = load ptr, ptr %8, align 8, !tbaa !26
  %71 = load i32, ptr %70, align 4
  %72 = and i32 %71, 65535
  %73 = icmp ne i32 %72, 0
  br i1 %73, label %75, label %74

74:                                               ; preds = %68
  br label %81

75:                                               ; preds = %68
  %76 = load ptr, ptr %8, align 8, !tbaa !26
  %77 = load i32, ptr %76, align 4
  %78 = and i32 %77, 65535
  %79 = load i32, ptr %13, align 4, !tbaa !8
  %80 = call i32 @Abc_Var2Lit(i32 noundef %78, i32 noundef %79)
  br label %81

81:                                               ; preds = %75, %74
  %82 = phi i32 [ 0, %74 ], [ %80, %75 ]
  store i32 %82, ptr %15, align 4, !tbaa !8
  %83 = load ptr, ptr %3, align 8, !tbaa !3
  %84 = getelementptr inbounds nuw %struct.Amap_Man_t_, ptr %83, i32 0, i32 1
  %85 = load ptr, ptr %84, align 8, !tbaa !64
  %86 = load i32, ptr %14, align 4, !tbaa !8
  %87 = load i32, ptr %15, align 4, !tbaa !8
  %88 = load ptr, ptr %4, align 8, !tbaa !25
  %89 = load i64, ptr %88, align 8
  %90 = and i64 %89, 7
  %91 = trunc i64 %90 to i32
  %92 = icmp eq i32 %91, 5
  %93 = zext i1 %92 to i32
  %94 = call i32 @Amap_LibFindNode(ptr noundef %85, i32 noundef %86, i32 noundef %87, i32 noundef %93)
  store i32 %94, ptr %9, align 4, !tbaa !8
  %95 = load i32, ptr %9, align 4, !tbaa !8
  %96 = icmp sge i32 %95, 0
  %97 = zext i1 %96 to i32
  %98 = load i32, ptr %16, align 4, !tbaa !8
  %99 = add nsw i32 %98, %97
  store i32 %99, ptr %16, align 4, !tbaa !8
  br label %100

100:                                              ; preds = %81
  %101 = load i32, ptr %11, align 4, !tbaa !8
  %102 = add nsw i32 %101, 1
  store i32 %102, ptr %11, align 4, !tbaa !8
  %103 = load ptr, ptr %8, align 8, !tbaa !26
  %104 = call ptr @Amap_ManCutNext(ptr noundef %103)
  store ptr %104, ptr %8, align 8, !tbaa !26
  br label %36, !llvm.loop !72

105:                                              ; preds = %36
  br label %106

106:                                              ; preds = %105
  %107 = load i32, ptr %10, align 4, !tbaa !8
  %108 = add nsw i32 %107, 1
  store i32 %108, ptr %10, align 4, !tbaa !8
  %109 = load ptr, ptr %7, align 8, !tbaa !26
  %110 = call ptr @Amap_ManCutNext(ptr noundef %109)
  store ptr %110, ptr %7, align 8, !tbaa !26
  br label %26, !llvm.loop !73

111:                                              ; preds = %26
  %112 = load i32, ptr %16, align 4, !tbaa !8
  call void @llvm.lifetime.end.p0(i64 4, ptr %16) #10
  call void @llvm.lifetime.end.p0(i64 4, ptr %15) #10
  call void @llvm.lifetime.end.p0(i64 4, ptr %14) #10
  call void @llvm.lifetime.end.p0(i64 4, ptr %13) #10
  call void @llvm.lifetime.end.p0(i64 4, ptr %12) #10
  call void @llvm.lifetime.end.p0(i64 4, ptr %11) #10
  call void @llvm.lifetime.end.p0(i64 4, ptr %10) #10
  call void @llvm.lifetime.end.p0(i64 4, ptr %9) #10
  call void @llvm.lifetime.end.p0(i64 8, ptr %8) #10
  call void @llvm.lifetime.end.p0(i64 8, ptr %7) #10
  call void @llvm.lifetime.end.p0(i64 8, ptr %6) #10
  call void @llvm.lifetime.end.p0(i64 8, ptr %5) #10
  ret i32 %112
}