; Function Attrs: nounwind uwtable
define i32 @Amap_ManMergeCountCuts(ptr noundef readonly captures(none) %0, ptr noundef readonly captures(none) %1) local_unnamed_addr #3 {
  %3 = getelementptr i8, ptr %0, i64 48
  %.val = load ptr, ptr %3, align 8, !tbaa !64
  %4 = getelementptr i8, ptr %1, i64 24
  %.val37 = load i32, ptr %4, align 8, !tbaa !3
  %5 = getelementptr i8, ptr %.val, i64 8
  %.val.val = load ptr, ptr %5, align 8, !tbaa !23
  %6 = ashr i32 %.val37, 1
  %7 = sext i32 %6 to i64
  %8 = getelementptr inbounds ptr, ptr %.val.val, i64 %7
  %9 = load ptr, ptr %8, align 8, !tbaa !24
  %10 = getelementptr i8, ptr %1, i64 28
  %11 = getelementptr inbounds nuw i8, ptr %9, i64 12
  %12 = load i32, ptr %11, align 4, !tbaa !26
  %13 = icmp sgt i32 %12, 0
  br i1 %13, label %.lr.ph49, label %._crit_edge50

.lr.ph49:                                         ; preds = %2
  %.val39 = load i32, ptr %10, align 4, !tbaa !3
  %14 = ashr i32 %.val39, 1
  %15 = sext i32 %14 to i64
  %16 = getelementptr inbounds ptr, ptr %.val.val, i64 %15
  %17 = load ptr, ptr %16, align 8, !tbaa !24
  %18 = getelementptr inbounds nuw i8, ptr %17, i64 40
  %19 = getelementptr inbounds nuw i8, ptr %17, i64 12
  %20 = getelementptr inbounds nuw i8, ptr %0, i64 8
  %21 = load i32, ptr %19, align 4, !tbaa !26
  %22 = icmp sgt i32 %21, 0
  br i1 %22, label %.lr.ph49.split.preheader, label %._crit_edge50

.lr.ph49.split.preheader:                         ; preds = %.lr.ph49
  %23 = getelementptr inbounds nuw i8, ptr %9, i64 40
  %24 = load ptr, ptr %23, align 8, !tbaa !25
  br label %.lr.ph49.split

.lr.ph49.split:                                   ; preds = %.lr.ph49.split.preheader, %._crit_edge
  %25 = phi i32 [ %64, %._crit_edge ], [ %12, %.lr.ph49.split.preheader ]
  %26 = phi i32 [ %65, %._crit_edge ], [ %21, %.lr.ph49.split.preheader ]
  %.047 = phi i32 [ %.1.lcssa, %._crit_edge ], [ 1, %.lr.ph49.split.preheader ]
  %.03046 = phi ptr [ %71, %._crit_edge ], [ %24, %.lr.ph49.split.preheader ]
  %.03245 = phi i32 [ %66, %._crit_edge ], [ 0, %.lr.ph49.split.preheader ]
  %27 = icmp sgt i32 %26, 0
  br i1 %27, label %.lr.ph.preheader, label %._crit_edge

.lr.ph.preheader:                                 ; preds = %.lr.ph49.split
  %28 = load ptr, ptr %18, align 8, !tbaa !25
  br label %.lr.ph

.lr.ph:                                           ; preds = %.lr.ph.preheader, %41
  %.144 = phi i32 [ %55, %41 ], [ %.047, %.lr.ph.preheader ]
  %.03143 = phi ptr [ %61, %41 ], [ %28, %.lr.ph.preheader ]
  %.03342 = phi i32 [ %56, %41 ], [ 0, %.lr.ph.preheader ]
  %29 = load i32, ptr %.03046, align 4
  %30 = load i32, ptr %.03143, align 4
  %31 = lshr i32 %30, 16
  %.val41 = load i32, ptr %10, align 4, !tbaa !3
  %32 = xor i32 %31, %.val41
  %33 = and i32 %32, 1
  %34 = and i32 %29, 65535
  %.not = icmp eq i32 %34, 0
  br i1 %.not, label %41, label %35

35:                                               ; preds = %.lr.ph
  %.val40 = load i32, ptr %4, align 8, !tbaa !3
  %36 = lshr i32 %29, 16
  %37 = xor i32 %.val40, %36
  %38 = and i32 %37, 1
  %39 = shl nuw nsw i32 %34, 1
  %40 = or disjoint i32 %38, %39
  br label %41

41:                                               ; preds = %.lr.ph, %35
  %42 = phi i32 [ %40, %35 ], [ 0, %.lr.ph ]
  %43 = and i32 %30, 65535
  %.not36 = icmp eq i32 %43, 0
  %44 = shl nuw nsw i32 %43, 1
  %45 = or disjoint i32 %33, %44
  %46 = select i1 %.not36, i32 0, i32 %45
  %47 = load ptr, ptr %20, align 8, !tbaa !56
  %48 = load i64, ptr %1, align 8
  %49 = and i64 %48, 7
  %50 = icmp eq i64 %49, 5
  %51 = zext i1 %50 to i32
  %52 = tail call i32 @Amap_LibFindNode(ptr noundef %47, i32 noundef %42, i32 noundef %46, i32 noundef %51) #16
  %53 = icmp sgt i32 %52, -1
  %54 = zext i1 %53 to i32
  %55 = add nsw i32 %.144, %54
  %56 = add nuw nsw i32 %.03342, 1
  %57 = load i32, ptr %.03143, align 4
  %58 = lshr i32 %57, 17
  %59 = zext nneg i32 %58 to i64
  %60 = getelementptr inbounds nuw i32, ptr %.03143, i64 %59
  %61 = getelementptr inbounds nuw i8, ptr %60, i64 4
  %62 = load i32, ptr %19, align 4, !tbaa !26
  %63 = icmp slt i32 %56, %62
  br i1 %63, label %.lr.ph, label %._crit_edge.loopexit, !llvm.loop !65

._crit_edge.loopexit:                             ; preds = %41
  %.pre = load i32, ptr %11, align 4, !tbaa !26
  br label %._crit_edge

._crit_edge:                                      ; preds = %._crit_edge.loopexit, %.lr.ph49.split
  %64 = phi i32 [ %25, %.lr.ph49.split ], [ %.pre, %._crit_edge.loopexit ]
  %65 = phi i32 [ %26, %.lr.ph49.split ], [ %62, %._crit_edge.loopexit ]
  %.1.lcssa = phi i32 [ %.047, %.lr.ph49.split ], [ %55, %._crit_edge.loopexit ]
  %66 = add nuw nsw i32 %.03245, 1
  %67 = load i32, ptr %.03046, align 4
  %68 = lshr i32 %67, 17
  %69 = zext nneg i32 %68 to i64
  %70 = getelementptr inbounds nuw i32, ptr %.03046, i64 %69
  %71 = getelementptr inbounds nuw i8, ptr %70, i64 4
  %72 = icmp slt i32 %66, %64
  br i1 %72, label %.lr.ph49.split, label %._crit_edge50, !llvm.loop !66

._crit_edge50:                                    ; preds = %._crit_edge, %.lr.ph49, %2
  %.0.lcssa = phi i32 [ 1, %2 ], [ 1, %.lr.ph49 ], [ %.1.lcssa, %._crit_edge ]
  ret i32 %.0.lcssa
}